target datalayout = "e-m:e-p270:32:32-p271:32:32-p272:64:64-i64:64-i128:128-f80:128-n8:16:32:64-S128"
target triple = "x86_64-pc-linux-gnu"

%struct.BuildCtx = type { ptr, i32, ptr, ptr, ptr, ptr, i64, i32, i32, i32, i32, i32, ptr, ptr, ptr, ptr, ptr, ptr, ptr, ptr, ptr, [200 x %struct.BuildReloc] }
%struct.BuildReloc = type { i32, i32, i32 }
%struct.dasm_State = type { i64, ptr, ptr, i64, ptr, i64, ptr, ptr, i64, i32, i32, [1 x %struct.dasm_Section] }
%struct.dasm_Section = type { ptr, ptr, i64, i32, i32, i32 }

; Function Attrs: nounwind uwtable
define dso_local i32 @dasm_getpclabel(ptr noundef %0, i32 noundef %1) #0 {
  %3 = alloca i32, align 4
  %4 = alloca ptr, align 8
  %5 = alloca i32, align 4
  %6 = alloca ptr, align 8
  %7 = alloca i32, align 4
  %8 = alloca i32, align 4
  store ptr %0, ptr %4, align 8, !tbaa !4
  store i32 %1, ptr %5, align 4, !tbaa !9
  call void @llvm.lifetime.start.p0(i64 8, ptr %6) #12
  %9 = load ptr, ptr %4, align 8, !tbaa !4
  %10 = getelementptr inbounds nuw %struct.BuildCtx, ptr %9, i32 0, i32 0
  %11 = load ptr, ptr %10, align 8, !tbaa !13
  store ptr %11, ptr %6, align 8, !tbaa !23
  %12 = load i32, ptr %5, align 4, !tbaa !9
  %13 = zext i32 %12 to i64
  %14 = mul i64 %13, 4
  %15 = load ptr, ptr %6, align 8, !tbaa !23
  %16 = getelementptr inbounds nuw %struct.dasm_State, ptr %15, i32 0, i32 5
  %17 = load i64, ptr %16, align 8, !tbaa !30
  %18 = icmp ult i64 %14, %17
  br i1 %18, label %19, label %52

19:                                               ; preds = %2
  call void @llvm.lifetime.start.p0(i64 4, ptr %7) #12
  %20 = load ptr, ptr %6, align 8, !tbaa !23
  %21 = getelementptr inbounds nuw %struct.dasm_State, ptr %20, i32 0, i32 4
  %22 = load ptr, ptr %21, align 8, !tbaa !29
  %23 = load i32, ptr %5, align 4, !tbaa !9
  %24 = zext i32 %23 to i64
  %25 = getelementptr inbounds nuw i32, ptr %22, i64 %24
  %26 = load i32, ptr %25, align 4, !tbaa !9
  store i32 %26, ptr %7, align 4, !tbaa !9
  %27 = load i32, ptr %7, align 4, !tbaa !9
  %28 = icmp slt i32 %27, 0
  br i1 %28, label %29, label %44

29:                                               ; preds = %19
  %30 = load ptr, ptr %6, align 8, !tbaa !23
  %31 = getelementptr inbounds nuw %struct.dasm_State, ptr %30, i32 0, i32 11
  %32 = load i32, ptr %7, align 4, !tbaa !9
  %33 = sub nsw i32 0, %32
  %34 = ashr i32 %33, 24
  %35 = sext i32 %34 to i64
  %36 = getelementptr inbounds [1 x %struct.dasm_Section], ptr %31, i64 0, i64 %35
  %37 = getelementptr inbounds nuw %struct.dasm_Section, ptr %36, i32 0, i32 0
  %38 = load ptr, ptr %37, align 8, !tbaa !43
  %39 = load i32, ptr %7, align 4, !tbaa !9
  %40 = sub nsw i32 0, %39
  %41 = sext i32 %40 to i64
  %42 = getelementptr inbounds i32, ptr %38, i64 %41
  %43 = load i32, ptr %42, align 4, !tbaa !9
  store i32 %43, ptr %3, align 4
  store i32 1, ptr %8, align 4
  br label %49

44:                                               ; preds = %19
  %45 = load i32, ptr %7, align 4, !tbaa !9
  %46 = icmp sgt i32 %45, 0
  br i1 %46, label %47, label %48

47:                                               ; preds = %44
  store i32 -1, ptr %3, align 4
  store i32 1, ptr %8, align 4
  br label %49

48:                                               ; preds = %44
  store i32 0, ptr %8, align 4
  br label %49

49:                                               ; preds = %48, %47, %29
  call void @llvm.lifetime.end.p0(i64 4, ptr %7) #12
  %50 = load i32, ptr %8, align 4
  switch i32 %50, label %53 [
    i32 0, label %51
  ]

51:                                               ; preds = %49
  br label %52

52:                                               ; preds = %51, %2
  store i32 -2, ptr %3, align 4
  store i32 1, ptr %8, align 4
  br label %53

53:                                               ; preds = %52, %49
  call void @llvm.lifetime.end.p0(i64 8, ptr %6) #12
  %54 = load i32, ptr %3, align 4
  ret i32 %54
}