; Function Attrs: mustprogress nofree norecurse nosync nounwind willreturn memory(read, inaccessiblemem: none) uwtable
define dso_local i32 @dasm_getpclabel(ptr noundef readonly captures(none) %0, i32 noundef %1) local_unnamed_addr #9 {
  %3 = load ptr, ptr %0, align 8, !tbaa !4
  %4 = zext i32 %1 to i64
  %5 = shl nuw nsw i64 %4, 2
  %6 = getelementptr inbounds nuw i8, ptr %3, i64 40
  %7 = load i64, ptr %6, align 8, !tbaa !31
  %8 = icmp ult i64 %5, %7
  br i1 %8, label %9, label %25

9:                                                ; preds = %2
  %10 = getelementptr inbounds nuw i8, ptr %3, i64 32
  %11 = load ptr, ptr %10, align 8, !tbaa !26
  %12 = getelementptr inbounds nuw i32, ptr %11, i64 %4
  %13 = load i32, ptr %12, align 4, !tbaa !43
  %14 = icmp slt i32 %13, 0
  br i1 %14, label %.thread, label %24

.thread:                                          ; preds = %9
  %15 = getelementptr inbounds nuw i8, ptr %3, i64 80
  %16 = sub nsw i32 0, %13
  %17 = lshr i32 %16, 24
  %18 = zext nneg i32 %17 to i64
  %19 = getelementptr inbounds nuw [1 x %struct.dasm_Section], ptr %15, i64 0, i64 %18
  %20 = load ptr, ptr %19, align 8, !tbaa !37
  %21 = zext nneg i32 %16 to i64
  %22 = getelementptr inbounds nuw i32, ptr %20, i64 %21
  %23 = load i32, ptr %22, align 4, !tbaa !43
  br label %26

24:                                               ; preds = %9
  %.not = icmp eq i32 %13, 0
  br i1 %.not, label %25, label %26

25:                                               ; preds = %24, %2
  br label %26

26:                                               ; preds = %.thread, %24, %25
  %.1 = phi i32 [ -2, %25 ], [ -1, %24 ], [ %23, %.thread ]
  ret i32 %.1
}